; Function Attrs: nounwind uwtable
define internal void @sigfd_cb(i32 noundef %0, i16 signext %1, ptr noundef %2) #2 {
  %4 = alloca %struct.signalfd_siginfo, align 8
  call void @llvm.lifetime.start.p0(i64 128, ptr nonnull %4) #7
  %5 = call i64 @read(i32 noundef %0, ptr noundef nonnull %4, i64 noundef 128) #7
  %6 = getelementptr inbounds nuw i8, ptr %2, i64 952
  %7 = load ptr, ptr %6, align 8
  %.not = icmp eq ptr %7, null
  br i1 %.not, label %11, label %8

8:                                                ; preds = %3
  %9 = load ptr, ptr getelementptr inbounds nuw (i8, ptr @evthread_lock_fns_, i64 24), align 8
  %10 = tail call i32 %9(i32 noundef 0, ptr noundef nonnull %7) #7
  br label %11

11:                                               ; preds = %8, %3
  %12 = load i32, ptr %4, align 8
  tail call void @evmap_signal_active_(ptr noundef nonnull %2, i32 noundef %12, i32 noundef 1) #7
  %13 = load ptr, ptr %6, align 8
  %.not7 = icmp eq ptr %13, null
  br i1 %.not7, label %17, label %14

14:                                               ; preds = %11
  %15 = load ptr, ptr getelementptr inbounds nuw (i8, ptr @evthread_lock_fns_, i64 32), align 8
  %16 = tail call i32 %15(i32 noundef 0, ptr noundef nonnull %13) #7
  br label %17

17:                                               ; preds = %14, %11
  call void @llvm.lifetime.end.p0(i64 128, ptr nonnull %4) #7
  ret void
}